; Function Attrs: mustprogress nofree nounwind uwtable
define hidden void @_ZN6cvtest8BaseTestC2Ev(ptr noundef nonnull align 8 dereferenceable(56) initializes((0, 8)) %0) unnamed_addr #8 align 2 personality ptr @__gxx_personality_v0 {
  store ptr getelementptr inbounds nuw inrange(-16, 104) (i8, ptr @_ZTVN6cvtest8BaseTestE, i64 16), ptr %0, align 8, !tbaa !3
  %2 = getelementptr inbounds nuw i8, ptr %0, i64 16
  %3 = getelementptr inbounds nuw i8, ptr %0, i64 32
  store ptr %3, ptr %2, align 8, !tbaa !6
  %4 = getelementptr inbounds nuw i8, ptr %0, i64 24
  store i64 0, ptr %4, align 8, !tbaa !11
  store i8 0, ptr %3, align 8, !tbaa !14
  %5 = load atomic i8, ptr @_ZGVZN6cvtest2TS3ptrEvE2ts acquire, align 8
  %6 = icmp eq i8 %5, 0
  br i1 %6, label %7, label %_ZN6cvtest2TS3ptrEv.exit, !prof !18

7:                                                ; preds = %1
  %8 = tail call i32 @__cxa_guard_acquire(ptr nonnull @_ZGVZN6cvtest2TS3ptrEvE2ts) #41
  %.not.i = icmp eq i32 %8, 0
  br i1 %.not.i, label %_ZN6cvtest2TS3ptrEv.exit, label %9

9:                                                ; preds = %7
  tail call void @_ZN6cvtest2TSC2Ev(ptr noundef nonnull align 8 dereferenceable(280) @_ZZN6cvtest2TS3ptrEvE2ts)
  %10 = tail call i32 @__cxa_atexit(ptr nonnull @_ZN6cvtest2TSD2Ev, ptr nonnull @_ZZN6cvtest2TS3ptrEvE2ts, ptr nonnull @__dso_handle) #41
  tail call void @__cxa_guard_release(ptr nonnull @_ZGVZN6cvtest2TS3ptrEvE2ts) #41
  br label %_ZN6cvtest2TS3ptrEv.exit

_ZN6cvtest2TS3ptrEv.exit:                         ; preds = %9, %7, %1
  %11 = getelementptr inbounds nuw i8, ptr %0, i64 48
  store ptr @_ZZN6cvtest2TS3ptrEvE2ts, ptr %11, align 8, !tbaa !19
  %12 = getelementptr inbounds nuw i8, ptr %0, i64 8
  store i32 -1, ptr %12, align 8, !tbaa !23
  ret void
}